target datalayout = "e-m:e-p270:32:32-p271:32:32-p272:64:64-i64:64-i128:128-f80:128-n8:16:32:64-S128"
target triple = "x86_64-pc-linux-gnu"

%struct._zval_struct = type { %union._zend_value, %union.anon, %union.anon.2 }
%union._zend_value = type { i64 }
%union.anon = type { i32 }
%union.anon.2 = type { i32 }
%struct._zend_op_array = type { i8, [3 x i8], i32, ptr, ptr, ptr, i32, i32, ptr, ptr, ptr, ptr, i32, i32, i32, i32, ptr, ptr, ptr, ptr, ptr, i32, i32, ptr, ptr, ptr, i32, i32, i32, i32, ptr, ptr, [6 x ptr] }
%struct._zend_execute_data = type { ptr, ptr, ptr, ptr, %struct._zval_struct, ptr, ptr, ptr, ptr }

; Function Attrs: nounwind uwtable
define void @zend_detach_symbol_table(ptr noundef %0) #0 {
  %2 = alloca ptr, align 8
  %3 = alloca ptr, align 8
  %4 = alloca ptr, align 8
  %5 = alloca ptr, align 8
  %6 = alloca ptr, align 8
  %7 = alloca ptr, align 8
  %8 = alloca ptr, align 8
  store ptr %0, ptr %3, align 8
  %9 = load ptr, ptr %3, align 8
  %10 = getelementptr inbounds %struct._zend_execute_data, ptr %9, i32 0, i32 3
  %11 = load ptr, ptr %10, align 8
  store ptr %11, ptr %4, align 8
  %12 = load ptr, ptr %3, align 8
  %13 = getelementptr inbounds %struct._zend_execute_data, ptr %12, i32 0, i32 6
  %14 = load ptr, ptr %13, align 8
  store ptr %14, ptr %5, align 8
  %15 = load ptr, ptr %4, align 8
  %16 = getelementptr inbounds %struct._zend_op_array, ptr %15, i32 0, i32 14
  %17 = load i32, ptr %16, align 8
  %18 = icmp ne i32 %17, 0
  %19 = xor i1 %18, true
  %20 = xor i1 %19, true
  %21 = zext i1 %20 to i32
  %22 = sext i32 %21 to i64
  %23 = icmp ne i64 %22, 0
  br i1 %23, label %24, label %68

24:                                               ; preds = %1
  %25 = load ptr, ptr %4, align 8
  %26 = getelementptr inbounds %struct._zend_op_array, ptr %25, i32 0, i32 19
  %27 = load ptr, ptr %26, align 8
  store ptr %27, ptr %6, align 8
  %28 = load ptr, ptr %6, align 8
  %29 = load ptr, ptr %4, align 8
  %30 = getelementptr inbounds %struct._zend_op_array, ptr %29, i32 0, i32 14
  %31 = load i32, ptr %30, align 8
  %32 = sext i32 %31 to i64
  %33 = getelementptr inbounds ptr, ptr %28, i64 %32
  store ptr %33, ptr %7, align 8
  %34 = load ptr, ptr %3, align 8
  %35 = getelementptr inbounds %struct._zval_struct, ptr %34, i64 5
  store ptr %35, ptr %8, align 8
  br label %36

36:                                               ; preds = %63, %24
  %37 = load ptr, ptr %8, align 8
  store ptr %37, ptr %2, align 8
  %38 = load ptr, ptr %2, align 8
  %39 = getelementptr inbounds %struct._zval_struct, ptr %38, i32 0, i32 1
  %40 = load i8, ptr %39, align 8
  %41 = zext i8 %40 to i32
  %42 = icmp eq i32 %41, 0
  br i1 %42, label %43, label %48

43:                                               ; preds = %36
  %44 = load ptr, ptr %5, align 8
  %45 = load ptr, ptr %6, align 8
  %46 = load ptr, ptr %45, align 8
  %47 = call i32 @zend_hash_del(ptr noundef %44, ptr noundef %46)
  br label %58

48:                                               ; preds = %36
  %49 = load ptr, ptr %5, align 8
  %50 = load ptr, ptr %6, align 8
  %51 = load ptr, ptr %50, align 8
  %52 = load ptr, ptr %8, align 8
  %53 = call ptr @zend_hash_update(ptr noundef %49, ptr noundef %51, ptr noundef %52)
  br label %54

54:                                               ; preds = %48
  %55 = load ptr, ptr %8, align 8
  %56 = getelementptr inbounds %struct._zval_struct, ptr %55, i32 0, i32 1
  store i32 0, ptr %56, align 8
  br label %57

57:                                               ; preds = %54
  br label %58

58:                                               ; preds = %57, %43
  %59 = load ptr, ptr %6, align 8
  %60 = getelementptr inbounds ptr, ptr %59, i32 1
  store ptr %60, ptr %6, align 8
  %61 = load ptr, ptr %8, align 8
  %62 = getelementptr inbounds %struct._zval_struct, ptr %61, i32 1
  store ptr %62, ptr %8, align 8
  br label %63

63:                                               ; preds = %58
  %64 = load ptr, ptr %6, align 8
  %65 = load ptr, ptr %7, align 8
  %66 = icmp ne ptr %64, %65
  br i1 %66, label %36, label %67

67:                                               ; preds = %63
  br label %68

68:                                               ; preds = %67, %1
  ret void
}