; Function Attrs: nounwind uwtable
define void @zend_detach_symbol_table(ptr noundef %0) local_unnamed_addr #0 {
  %2 = getelementptr inbounds i8, ptr %0, i64 24
  %3 = load ptr, ptr %2, align 8
  %4 = getelementptr inbounds i8, ptr %0, i64 56
  %5 = load ptr, ptr %4, align 8
  %6 = getelementptr inbounds i8, ptr %3, i64 80
  %7 = load i32, ptr %6, align 8
  %.not = icmp eq i32 %7, 0
  br i1 %.not, label %.loopexit, label %8

8:                                                ; preds = %1
  %9 = getelementptr inbounds i8, ptr %3, i64 112
  %10 = load ptr, ptr %9, align 8
  %11 = sext i32 %7 to i64
  %12 = getelementptr inbounds ptr, ptr %10, i64 %11
  %13 = getelementptr inbounds i8, ptr %0, i64 80
  br label %14

14:                                               ; preds = %23, %8
  %.019 = phi ptr [ %10, %8 ], [ %24, %23 ]
  %.0 = phi ptr [ %13, %8 ], [ %25, %23 ]
  %15 = getelementptr inbounds i8, ptr %.0, i64 8
  %16 = load i8, ptr %15, align 8
  %17 = icmp eq i8 %16, 0
  %18 = load ptr, ptr %.019, align 8
  br i1 %17, label %19, label %21

19:                                               ; preds = %14
  %20 = tail call i32 @zend_hash_del(ptr noundef %5, ptr noundef %18) #24
  br label %23

21:                                               ; preds = %14
  %22 = tail call ptr @zend_hash_update(ptr noundef %5, ptr noundef %18, ptr noundef nonnull %.0) #24
  store i32 0, ptr %15, align 8
  br label %23

23:                                               ; preds = %21, %19
  %24 = getelementptr inbounds i8, ptr %.019, i64 8
  %25 = getelementptr inbounds i8, ptr %.0, i64 16
  %.not22 = icmp eq ptr %24, %12
  br i1 %.not22, label %.loopexit, label %14

.loopexit:                                        ; preds = %23, %1
  ret void
}